target datalayout = "e-m:e-p270:32:32-p271:32:32-p272:64:64-i64:64-i128:128-f80:128-n8:16:32:64-S128"
target triple = "x86_64-pc-linux-gnu"

%struct._wmem_tree_key_t = type { i32, ptr }
%struct.nstime_t = type { i64, i32 }
%struct.nvme_cmd_ctx = type { i32, i32, i32, [16 x i32], i32, %struct.nstime_t, %struct.nstime_t, i32, i8, %union.anon, i8 }
%union.anon = type { %struct.anon.1 }
%struct.anon.1 = type { i32, i32, i32, i32, i16, i8, i8, i64, i8 }
%struct.nvme_q_ctx = type { ptr, ptr, ptr, ptr, ptr, i16 }
%struct.keyed_data_req = type { i64, i32, i32 }

; Function Attrs: nounwind null_pointer_is_valid sspstrong uwtable
define internal void @nvme_build_pending_transfer_key(ptr noundef %0, ptr noundef %1) #5 {
  %3 = alloca ptr, align 8
  %4 = alloca ptr, align 8
  store ptr %0, ptr %3, align 8
  store ptr %1, ptr %4, align 8
  %5 = load ptr, ptr %3, align 8
  %6 = getelementptr %struct._wmem_tree_key_t, ptr %5, i64 0
  %7 = getelementptr inbounds nuw %struct._wmem_tree_key_t, ptr %6, i32 0, i32 0
  store i32 2, ptr %7, align 8
  %8 = load ptr, ptr %4, align 8
  %9 = getelementptr inbounds nuw %struct.keyed_data_req, ptr %8, i32 0, i32 0
  %10 = load ptr, ptr %3, align 8
  %11 = getelementptr %struct._wmem_tree_key_t, ptr %10, i64 0
  %12 = getelementptr inbounds nuw %struct._wmem_tree_key_t, ptr %11, i32 0, i32 1
  store ptr %9, ptr %12, align 8
  %13 = load ptr, ptr %3, align 8
  %14 = getelementptr %struct._wmem_tree_key_t, ptr %13, i64 1
  %15 = getelementptr inbounds nuw %struct._wmem_tree_key_t, ptr %14, i32 0, i32 0
  store i32 1, ptr %15, align 8
  %16 = load ptr, ptr %4, align 8
  %17 = getelementptr inbounds nuw %struct.keyed_data_req, ptr %16, i32 0, i32 1
  %18 = load ptr, ptr %3, align 8
  %19 = getelementptr %struct._wmem_tree_key_t, ptr %18, i64 1
  %20 = getelementptr inbounds nuw %struct._wmem_tree_key_t, ptr %19, i32 0, i32 1
  store ptr %17, ptr %20, align 8
  %21 = load ptr, ptr %3, align 8
  %22 = getelementptr %struct._wmem_tree_key_t, ptr %21, i64 2
  %23 = getelementptr inbounds nuw %struct._wmem_tree_key_t, ptr %22, i32 0, i32 0
  store i32 1, ptr %23, align 8
  %24 = load ptr, ptr %4, align 8
  %25 = getelementptr inbounds nuw %struct.keyed_data_req, ptr %24, i32 0, i32 2
  %26 = load ptr, ptr %3, align 8
  %27 = getelementptr %struct._wmem_tree_key_t, ptr %26, i64 2
  %28 = getelementptr inbounds nuw %struct._wmem_tree_key_t, ptr %27, i32 0, i32 1
  store ptr %25, ptr %28, align 8
  %29 = load ptr, ptr %3, align 8
  %30 = getelementptr %struct._wmem_tree_key_t, ptr %29, i64 3
  %31 = getelementptr inbounds nuw %struct._wmem_tree_key_t, ptr %30, i32 0, i32 0
  store i32 0, ptr %31, align 8
  %32 = load ptr, ptr %3, align 8
  %33 = getelementptr %struct._wmem_tree_key_t, ptr %32, i64 3
  %34 = getelementptr inbounds nuw %struct._wmem_tree_key_t, ptr %33, i32 0, i32 1
  store ptr null, ptr %34, align 8
  ret void
}

; Function Attrs: alwaysinline nounwind
define internal ptr @memset.inline(ptr %0, i32 %1, i64 %2) #6 {
  %4 = alloca ptr, align 8
  %5 = alloca i32, align 4
  %6 = alloca i64, align 8
  store ptr %0, ptr %4, align 8
  store i32 %1, ptr %5, align 4
  store i64 %2, ptr %6, align 8
  %7 = load ptr, ptr %4, align 8
  %8 = load i32, ptr %5, align 4
  %9 = load i64, ptr %6, align 8
  %10 = load ptr, ptr %4, align 8
  %11 = call i64 @llvm.objectsize.i64.p0(ptr %10, i1 false, i1 true, i1 true)
  %12 = call ptr @__memset_chk(ptr noundef %7, i32 noundef %8, i64 noundef %9, i64 noundef %11) #9
  ret ptr %12
}

; Function Attrs: null_pointer_is_valid sspstrong uwtable
define hidden void @nvme_add_data_request(ptr noundef %0, ptr noundef %1, ptr noundef %2) #0 {
  %4 = alloca ptr, align 8
  %5 = alloca ptr, align 8
  %6 = alloca ptr, align 8
  %7 = alloca [4 x %struct._wmem_tree_key_t], align 16
  store ptr %0, ptr %4, align 8
  store ptr %1, ptr %5, align 8
  store ptr %2, ptr %6, align 8
  call void @llvm.lifetime.start.p0(i64 64, ptr %7) #9
  %8 = load ptr, ptr %5, align 8
  %9 = getelementptr inbounds nuw %struct.nvme_cmd_ctx, ptr %8, i32 0, i32 3
  %10 = getelementptr inbounds [16 x i32], ptr %9, i64 0, i64 0
  %11 = call ptr @memset.inline(ptr noundef %10, i32 noundef 0, i64 noundef 64) #9
  %12 = getelementptr inbounds [4 x %struct._wmem_tree_key_t], ptr %7, i64 0, i64 0
  %13 = load ptr, ptr %6, align 8
  call void @nvme_build_pending_transfer_key(ptr noundef %12, ptr noundef %13)
  %14 = load ptr, ptr %4, align 8
  %15 = getelementptr inbounds nuw %struct.nvme_q_ctx, ptr %14, i32 0, i32 2
  %16 = load ptr, ptr %15, align 8
  %17 = getelementptr inbounds [4 x %struct._wmem_tree_key_t], ptr %7, i64 0, i64 0
  %18 = load ptr, ptr %5, align 8
  call void @wmem_tree_insert32_array(ptr noundef %16, ptr noundef %17, ptr noundef %18)
  call void @llvm.lifetime.end.p0(i64 64, ptr %7) #9
  ret void
}