; Function Attrs: null_pointer_is_valid sspstrong uwtable
define hidden void @nvme_add_data_request(ptr noundef readonly captures(none) %0, ptr noundef %1, ptr noundef %2) local_unnamed_addr #0 {
  %4 = alloca [4 x %struct._wmem_tree_key_t], align 16
  call void @llvm.lifetime.start.p0(i64 64, ptr nonnull %4) #10
  %5 = getelementptr inbounds nuw i8, ptr %1, i64 12
  tail call void @llvm.memset.p0.i64(ptr noundef nonnull align 1 dereferenceable(64) %5, i8 noundef 0, i64 noundef 64, i1 noundef false) #10
  store i32 2, ptr %4, align 16
  %6 = getelementptr inbounds nuw i8, ptr %4, i64 8
  store ptr %2, ptr %6, align 8
  %7 = getelementptr inbounds nuw i8, ptr %4, i64 16
  store i32 1, ptr %7, align 16
  %8 = getelementptr inbounds nuw i8, ptr %2, i64 8
  %9 = getelementptr inbounds nuw i8, ptr %4, i64 24
  store ptr %8, ptr %9, align 8
  %10 = getelementptr inbounds nuw i8, ptr %4, i64 32
  store i32 1, ptr %10, align 16
  %11 = getelementptr inbounds nuw i8, ptr %2, i64 12
  %12 = getelementptr inbounds nuw i8, ptr %4, i64 40
  store ptr %11, ptr %12, align 8
  %13 = getelementptr inbounds nuw i8, ptr %4, i64 48
  store i32 0, ptr %13, align 16
  %14 = getelementptr inbounds nuw i8, ptr %4, i64 56
  store ptr null, ptr %14, align 8
  %15 = getelementptr inbounds nuw i8, ptr %0, i64 16
  %16 = load ptr, ptr %15, align 8
  call void @wmem_tree_insert32_array(ptr noundef %16, ptr noundef nonnull %4, ptr noundef %1)
  call void @llvm.lifetime.end.p0(i64 64, ptr nonnull %4) #10
  ret void
}